; ModuleID = '46/1466.c'
source_filename = "46/1466.c"
target datalayout = "e-m:e-p270:32:32-p271:32:32-p272:64:64-i64:64-f80:128-n8:16:32:64-S128"
target triple = "x86_64-pc-linux-gnu"

@.str = private unnamed_addr constant [5 x i8] c"%d%d\00", align 1
@.str.1 = private unnamed_addr constant [3 x i8] c"%d\00", align 1
@.str.2 = private unnamed_addr constant [4 x i8] c"%d\0A\00", align 1

; Function Attrs: noinline nounwind uwtable
define dso_local i32 @main() #0 {
  %1 = alloca i32, align 4
  %2 = alloca i32, align 4
  %3 = alloca i32, align 4
  %4 = alloca [100 x [100 x i32]], align 16
  %5 = alloca i32, align 4
  %6 = alloca i32, align 4
  %7 = alloca i32, align 4
  store i32 0, i32* %1, align 4
  store i32 0, i32* %5, align 4
  %8 = call i32 (i8*, ...) @__isoc99_scanf(i8* getelementptr inbounds ([5 x i8], [5 x i8]* @.str, i64 0, i64 0), i32* %2, i32* %3)
  store i32 0, i32* %6, align 4
  br label %9

9:                                                ; preds = %30, %0
  %10 = load i32, i32* %6, align 4
  %11 = load i32, i32* %2, align 4
  %12 = icmp slt i32 %10, %11
  br i1 %12, label %13, label %33

13:                                               ; preds = %9
  store i32 0, i32* %7, align 4
  br label %14

14:                                               ; preds = %26, %13
  %15 = load i32, i32* %7, align 4
  %16 = load i32, i32* %3, align 4
  %17 = icmp slt i32 %15, %16
  br i1 %17, label %18, label %29

18:                                               ; preds = %14
  %19 = load i32, i32* %6, align 4
  %20 = sext i32 %19 to i64
  %21 = getelementptr inbounds [100 x [100 x i32]], [100 x [100 x i32]]* %4, i64 0, i64 %20
  %22 = load i32, i32* %7, align 4
  %23 = sext i32 %22 to i64
  %24 = getelementptr inbounds [100 x i32], [100 x i32]* %21, i64 0, i64 %23
  %25 = call i32 (i8*, ...) @__isoc99_scanf(i8* getelementptr inbounds ([3 x i8], [3 x i8]* @.str.1, i64 0, i64 0), i32* %24)
  br label %26

26:                                               ; preds = %18
  %27 = load i32, i32* %7, align 4
  %28 = add nsw i32 %27, 1
  store i32 %28, i32* %7, align 4
  br label %14

29:                                               ; preds = %14
  br label %30

30:                                               ; preds = %29
  %31 = load i32, i32* %6, align 4
  %32 = add nsw i32 %31, 1
  store i32 %32, i32* %6, align 4
  br label %9

33:                                               ; preds = %9
  store i32 0, i32* %6, align 4
  br label %34

34:                                               ; preds = %169, %33
  %35 = load i32, i32* %6, align 4
  %36 = load i32, i32* %2, align 4
  %37 = icmp slt i32 %35, %36
  br i1 %37, label %38, label %172

38:                                               ; preds = %34
  %39 = load i32, i32* %6, align 4
  store i32 %39, i32* %7, align 4
  br label %40

40:                                               ; preds = %58, %38
  %41 = load i32, i32* %7, align 4
  %42 = load i32, i32* %3, align 4
  %43 = load i32, i32* %6, align 4
  %44 = sub nsw i32 %42, %43
  %45 = sub nsw i32 %44, 1
  %46 = icmp sle i32 %41, %45
  br i1 %46, label %47, label %61

47:                                               ; preds = %40
  %48 = load i32, i32* %6, align 4
  %49 = sext i32 %48 to i64
  %50 = getelementptr inbounds [100 x [100 x i32]], [100 x [100 x i32]]* %4, i64 0, i64 %49
  %51 = load i32, i32* %7, align 4
  %52 = sext i32 %51 to i64
  %53 = getelementptr inbounds [100 x i32], [100 x i32]* %50, i64 0, i64 %52
  %54 = load i32, i32* %53, align 4
  %55 = call i32 (i8*, ...) @printf(i8* getelementptr inbounds ([4 x i8], [4 x i8]* @.str.2, i64 0, i64 0), i32 %54)
  %56 = load i32, i32* %5, align 4
  %57 = add nsw i32 %56, 1
  store i32 %57, i32* %5, align 4
  br label %58

58:                                               ; preds = %47
  %59 = load i32, i32* %7, align 4
  %60 = add nsw i32 %59, 1
  store i32 %60, i32* %7, align 4
  br label %40

61:                                               ; preds = %40
  %62 = load i32, i32* %5, align 4
  %63 = load i32, i32* %2, align 4
  %64 = load i32, i32* %3, align 4
  %65 = mul nsw i32 %63, %64
  %66 = icmp eq i32 %62, %65
  br i1 %66, label %67, label %68

67:                                               ; preds = %61
  br label %172

68:                                               ; preds = %61
  %69 = load i32, i32* %6, align 4
  %70 = add nsw i32 %69, 1
  store i32 %70, i32* %7, align 4
  br label %71

71:                                               ; preds = %92, %68
  %72 = load i32, i32* %7, align 4
  %73 = load i32, i32* %2, align 4
  %74 = load i32, i32* %6, align 4
  %75 = sub nsw i32 %73, %74
  %76 = sub nsw i32 %75, 1
  %77 = icmp sle i32 %72, %76
  br i1 %77, label %78, label %95

78:                                               ; preds = %71
  %79 = load i32, i32* %7, align 4
  %80 = sext i32 %79 to i64
  %81 = getelementptr inbounds [100 x [100 x i32]], [100 x [100 x i32]]* %4, i64 0, i64 %80
  %82 = load i32, i32* %3, align 4
  %83 = load i32, i32* %6, align 4
  %84 = sub nsw i32 %82, %83
  %85 = sub nsw i32 %84, 1
  %86 = sext i32 %85 to i64
  %87 = getelementptr inbounds [100 x i32], [100 x i32]* %81, i64 0, i64 %86
  %88 = load i32, i32* %87, align 4
  %89 = call i32 (i8*, ...) @printf(i8* getelementptr inbounds ([4 x i8], [4 x i8]* @.str.2, i64 0, i64 0), i32 %88)
  %90 = load i32, i32* %5, align 4
  %91 = add nsw i32 %90, 1
  store i32 %91, i32* %5, align 4
  br label %92

92:                                               ; preds = %78
  %93 = load i32, i32* %7, align 4
  %94 = add nsw i32 %93, 1
  store i32 %94, i32* %7, align 4
  br label %71

95:                                               ; preds = %71
  %96 = load i32, i32* %5, align 4
  %97 = load i32, i32* %2, align 4
  %98 = load i32, i32* %3, align 4
  %99 = mul nsw i32 %97, %98
  %100 = icmp eq i32 %96, %99
  br i1 %100, label %101, label %102

101:                                              ; preds = %95
  br label %172

102:                                              ; preds = %95
  %103 = load i32, i32* %3, align 4
  %104 = load i32, i32* %6, align 4
  %105 = sub nsw i32 %103, %104
  %106 = sub nsw i32 %105, 1
  %107 = sub nsw i32 %106, 1
  store i32 %107, i32* %7, align 4
  br label %108

108:                                              ; preds = %126, %102
  %109 = load i32, i32* %7, align 4
  %110 = load i32, i32* %6, align 4
  %111 = icmp sge i32 %109, %110
  br i1 %111, label %112, label %129

112:                                              ; preds = %108
  %113 = load i32, i32* %2, align 4
  %114 = load i32, i32* %6, align 4
  %115 = sub nsw i32 %113, %114
  %116 = sub nsw i32 %115, 1
  %117 = sext i32 %116 to i64
  %118 = getelementptr inbounds [100 x [100 x i32]], [100 x [100 x i32]]* %4, i64 0, i64 %117
  %119 = load i32, i32* %7, align 4
  %120 = sext i32 %119 to i64
  %121 = getelementptr inbounds [100 x i32], [100 x i32]* %118, i64 0, i64 %120
  %122 = load i32, i32* %121, align 4
  %123 = call i32 (i8*, ...) @printf(i8* getelementptr inbounds ([4 x i8], [4 x i8]* @.str.2, i64 0, i64 0), i32 %122)
  %124 = load i32, i32* %5, align 4
  %125 = add nsw i32 %124, 1
  store i32 %125, i32* %5, align 4
  br label %126

126:                                              ; preds = %112
  %127 = load i32, i32* %7, align 4
  %128 = add nsw i32 %127, -1
  store i32 %128, i32* %7, align 4
  br label %108

129:                                              ; preds = %108
  %130 = load i32, i32* %5, align 4
  %131 = load i32, i32* %2, align 4
  %132 = load i32, i32* %3, align 4
  %133 = mul nsw i32 %131, %132
  %134 = icmp eq i32 %130, %133
  br i1 %134, label %135, label %136

135:                                              ; preds = %129
  br label %172

136:                                              ; preds = %129
  %137 = load i32, i32* %2, align 4
  %138 = load i32, i32* %6, align 4
  %139 = sub nsw i32 %137, %138
  %140 = sub nsw i32 %139, 1
  %141 = sub nsw i32 %140, 1
  store i32 %141, i32* %7, align 4
  br label %142

142:                                              ; preds = %158, %136
  %143 = load i32, i32* %7, align 4
  %144 = load i32, i32* %6, align 4
  %145 = add nsw i32 %144, 1
  %146 = icmp sge i32 %143, %145
  br i1 %146, label %147, label %161

147:                                              ; preds = %142
  %148 = load i32, i32* %7, align 4
  %149 = sext i32 %148 to i64
  %150 = getelementptr inbounds [100 x [100 x i32]], [100 x [100 x i32]]* %4, i64 0, i64 %149
  %151 = load i32, i32* %6, align 4
  %152 = sext i32 %151 to i64
  %153 = getelementptr inbounds [100 x i32], [100 x i32]* %150, i64 0, i64 %152
  %154 = load i32, i32* %153, align 4
  %155 = call i32 (i8*, ...) @printf(i8* getelementptr inbounds ([4 x i8], [4 x i8]* @.str.2, i64 0, i64 0), i32 %154)
  %156 = load i32, i32* %5, align 4
  %157 = add nsw i32 %156, 1
  store i32 %157, i32* %5, align 4
  br label %158

158:                                              ; preds = %147
  %159 = load i32, i32* %7, align 4
  %160 = add nsw i32 %159, -1
  store i32 %160, i32* %7, align 4
  br label %142

161:                                              ; preds = %142
  %162 = load i32, i32* %5, align 4
  %163 = load i32, i32* %2, align 4
  %164 = load i32, i32* %3, align 4
  %165 = mul nsw i32 %163, %164
  %166 = icmp eq i32 %162, %165
  br i1 %166, label %167, label %168

167:                                              ; preds = %161
  br label %172

168:                                              ; preds = %161
  br label %169

169:                                              ; preds = %168
  %170 = load i32, i32* %6, align 4
  %171 = add nsw i32 %170, 1
  store i32 %171, i32* %6, align 4
  br label %34

172:                                              ; preds = %167, %135, %101, %67, %34
  ret i32 0
}

declare dso_local i32 @__isoc99_scanf(i8*, ...) #1

declare dso_local i32 @printf(i8*, ...) #1


!llvm.module.flags = !{!0}
!llvm.ident = !{!1}

!0 = !{i32 1, !"wchar_size", i32 4}
!1 = !{!"clang version 10.0.0-4ubuntu1 "}
